target datalayout = "e-m:e-p270:32:32-p271:32:32-p272:64:64-i64:64-i128:128-f80:128-n8:16:32:64-S128"
target triple = "x86_64-unknown-linux-gnu"

%"class.icu_75::LocaleMatcher::Result" = type <{ ptr, ptr, i32, i32, i8, [7 x i8] }>

@_ZN6icu_7513LocaleMatcher6ResultD1Ev = unnamed_addr alias void (ptr), ptr @_ZN6icu_7513LocaleMatcher6ResultD2Ev

; Function Attrs: mustprogress nounwind uwtable
define noundef nonnull align 8 dereferenceable(25) ptr @_ZN6icu_7513LocaleMatcher6ResultaSEOS1_(ptr noundef nonnull align 8 dereferenceable(25) %this, ptr noundef nonnull align 8 dereferenceable(25) %src) #0 align 2 {
entry:
  %this.addr = alloca ptr, align 8
  %src.addr = alloca ptr, align 8
  store ptr %this, ptr %this.addr, align 8
  store ptr %src, ptr %src.addr, align 8
  %this1 = load ptr, ptr %this.addr, align 8
  call void @_ZN6icu_7513LocaleMatcher6ResultD1Ev(ptr noundef nonnull align 8 dereferenceable(25) %this1) #11
  %0 = load ptr, ptr %src.addr, align 8
  %desiredLocale = getelementptr inbounds %"class.icu_75::LocaleMatcher::Result", ptr %0, i32 0, i32 0
  %1 = load ptr, ptr %desiredLocale, align 8
  %desiredLocale2 = getelementptr inbounds %"class.icu_75::LocaleMatcher::Result", ptr %this1, i32 0, i32 0
  store ptr %1, ptr %desiredLocale2, align 8
  %2 = load ptr, ptr %src.addr, align 8
  %supportedLocale = getelementptr inbounds %"class.icu_75::LocaleMatcher::Result", ptr %2, i32 0, i32 1
  %3 = load ptr, ptr %supportedLocale, align 8
  %supportedLocale3 = getelementptr inbounds %"class.icu_75::LocaleMatcher::Result", ptr %this1, i32 0, i32 1
  store ptr %3, ptr %supportedLocale3, align 8
  %4 = load ptr, ptr %src.addr, align 8
  %desiredIndex = getelementptr inbounds %"class.icu_75::LocaleMatcher::Result", ptr %4, i32 0, i32 2
  %5 = load i32, ptr %desiredIndex, align 8
  %desiredIndex4 = getelementptr inbounds %"class.icu_75::LocaleMatcher::Result", ptr %this1, i32 0, i32 2
  store i32 %5, ptr %desiredIndex4, align 8
  %6 = load ptr, ptr %src.addr, align 8
  %supportedIndex = getelementptr inbounds %"class.icu_75::LocaleMatcher::Result", ptr %6, i32 0, i32 3
  %7 = load i32, ptr %supportedIndex, align 4
  %supportedIndex5 = getelementptr inbounds %"class.icu_75::LocaleMatcher::Result", ptr %this1, i32 0, i32 3
  store i32 %7, ptr %supportedIndex5, align 4
  %8 = load ptr, ptr %src.addr, align 8
  %desiredIsOwned = getelementptr inbounds %"class.icu_75::LocaleMatcher::Result", ptr %8, i32 0, i32 4
  %9 = load i8, ptr %desiredIsOwned, align 8
  %desiredIsOwned6 = getelementptr inbounds %"class.icu_75::LocaleMatcher::Result", ptr %this1, i32 0, i32 4
  store i8 %9, ptr %desiredIsOwned6, align 8
  %desiredIsOwned7 = getelementptr inbounds %"class.icu_75::LocaleMatcher::Result", ptr %this1, i32 0, i32 4
  %10 = load i8, ptr %desiredIsOwned7, align 8
  %tobool = icmp ne i8 %10, 0
  br i1 %tobool, label %if.then, label %if.end

if.then:                                          ; preds = %entry
  %11 = load ptr, ptr %src.addr, align 8
  %desiredLocale8 = getelementptr inbounds %"class.icu_75::LocaleMatcher::Result", ptr %11, i32 0, i32 0
  store ptr null, ptr %desiredLocale8, align 8
  %12 = load ptr, ptr %src.addr, align 8
  %desiredIndex9 = getelementptr inbounds %"class.icu_75::LocaleMatcher::Result", ptr %12, i32 0, i32 2
  store i32 -1, ptr %desiredIndex9, align 8
  %13 = load ptr, ptr %src.addr, align 8
  %desiredIsOwned10 = getelementptr inbounds %"class.icu_75::LocaleMatcher::Result", ptr %13, i32 0, i32 4
  store i8 0, ptr %desiredIsOwned10, align 8
  br label %if.end

if.end:                                           ; preds = %if.then, %entry
  ret ptr %this1
}