; Function Attrs: mustprogress nounwind uwtable
define noundef nonnull align 8 dereferenceable(25) ptr @_ZN6icu_7513LocaleMatcher6ResultaSEOS1_(ptr noundef nonnull returned align 8 dereferenceable(25) %this, ptr nocapture noundef nonnull align 8 dereferenceable(25) %src) local_unnamed_addr #1 align 2 {
entry:
  tail call void @_ZN6icu_7513LocaleMatcher6ResultD1Ev(ptr noundef nonnull align 8 dereferenceable(25) %this) #15
  %0 = load ptr, ptr %src, align 8
  store ptr %0, ptr %this, align 8
  %supportedLocale = getelementptr inbounds i8, ptr %src, i64 8
  %1 = load ptr, ptr %supportedLocale, align 8
  %supportedLocale3 = getelementptr inbounds i8, ptr %this, i64 8
  store ptr %1, ptr %supportedLocale3, align 8
  %desiredIndex = getelementptr inbounds i8, ptr %src, i64 16
  %2 = load i32, ptr %desiredIndex, align 8
  %desiredIndex4 = getelementptr inbounds i8, ptr %this, i64 16
  store i32 %2, ptr %desiredIndex4, align 8
  %supportedIndex = getelementptr inbounds i8, ptr %src, i64 20
  %3 = load i32, ptr %supportedIndex, align 4
  %supportedIndex5 = getelementptr inbounds i8, ptr %this, i64 20
  store i32 %3, ptr %supportedIndex5, align 4
  %desiredIsOwned = getelementptr inbounds i8, ptr %src, i64 24
  %4 = load i8, ptr %desiredIsOwned, align 8
  %desiredIsOwned6 = getelementptr inbounds i8, ptr %this, i64 24
  store i8 %4, ptr %desiredIsOwned6, align 8
  %tobool.not = icmp eq i8 %4, 0
  br i1 %tobool.not, label %if.end, label %if.then

if.then:                                          ; preds = %entry
  store ptr null, ptr %src, align 8
  store i32 -1, ptr %desiredIndex, align 8
  store i8 0, ptr %desiredIsOwned, align 8
  br label %if.end

if.end:                                           ; preds = %if.then, %entry
  ret ptr %this
}